target datalayout = "e-m:e-p270:32:32-p271:32:32-p272:64:64-i64:64-i128:128-f80:128-n8:16:32:64-S128"
target triple = "x86_64-pc-linux-gnu"

%struct._longobject = type { %struct._object, %struct._PyLongValue }
%struct._object = type { %union.anon.26, ptr }
%union.anon.26 = type { i64 }
%struct._PyLongValue = type { i64, [1 x i32] }
%struct.PyCompilerFlags = type { i32, i32 }
%struct._PyCompiler = type { ptr, ptr, %struct._PyFutureFeatures, %struct.PyCompilerFlags, i32, i32, ptr, ptr, ptr, i8 }
%struct._PyFutureFeatures = type { i32, %struct._Py_SourceLocation }
%struct._Py_SourceLocation = type { i32, i32, i32, i32 }
%struct.compiler_unit = type { ptr, i32, ptr, ptr, ptr, ptr, i32, i32, [21 x %struct._PyCompile_FBlockInfo], %struct._PyCompile_CodeUnitMetadata }
%struct._PyCompile_FBlockInfo = type { i32, %struct._PyJumpTargetLabel, %struct._Py_SourceLocation, %struct._PyJumpTargetLabel, ptr }
%struct._PyJumpTargetLabel = type { i32 }
%struct._PyCompile_CodeUnitMetadata = type { ptr, ptr, ptr, ptr, ptr, ptr, ptr, ptr, i64, i64, i64, i32 }
%struct.anon.27 = type { i32, i32 }
%struct._symtable_entry = type { %struct._object, ptr, ptr, ptr, ptr, ptr, ptr, ptr, i32, ptr, i32, i8, i32, i16, i32, %struct._Py_SourceLocation, ptr, ptr }
%struct._PyCompile_InlinedComprehensionState = type { ptr, ptr, ptr, %struct._PyJumpTargetLabel }

@_Py_FalseStruct = external global %struct._longobject, align 8

; Function Attrs: alwaysinline nounwind uwtable
define internal i32 @_Py_IsImmortal(ptr noundef %0) #4 {
  %2 = alloca ptr, align 8
  store ptr %0, ptr %2, align 8, !tbaa !32
  %3 = load ptr, ptr %2, align 8, !tbaa !32
  %4 = getelementptr inbounds nuw %struct._object, ptr %3, i32 0, i32 0
  %5 = getelementptr inbounds nuw %struct.anon.27, ptr %4, i32 0, i32 0
  %6 = load i32, ptr %5, align 8, !tbaa !11
  %7 = icmp slt i32 %6, 0
  %8 = zext i1 %7 to i32
  ret i32 %8
}

; Function Attrs: alwaysinline nounwind uwtable
define internal void @Py_DECREF(ptr noundef %0) #4 {
  %2 = alloca ptr, align 8
  store ptr %0, ptr %2, align 8, !tbaa !32
  %3 = load ptr, ptr %2, align 8, !tbaa !32
  %4 = call i32 @_Py_IsImmortal(ptr noundef %3)
  %5 = icmp ne i32 %4, 0
  br i1 %5, label %6, label %7

6:                                                ; preds = %1
  br label %16

7:                                                ; preds = %1
  %8 = load ptr, ptr %2, align 8, !tbaa !32
  %9 = getelementptr inbounds nuw %struct._object, ptr %8, i32 0, i32 0
  %10 = getelementptr inbounds nuw %struct.anon.27, ptr %9, i32 0, i32 0
  %11 = load i32, ptr %10, align 8, !tbaa !11
  %12 = add i32 %11, -1
  store i32 %12, ptr %10, align 8, !tbaa !11
  %13 = icmp eq i32 %12, 0
  br i1 %13, label %14, label %16

14:                                               ; preds = %7
  %15 = load ptr, ptr %2, align 8, !tbaa !32
  call void @_Py_Dealloc(ptr noundef %15)
  br label %16

16:                                               ; preds = %6, %14, %7
  ret void
}

; Function Attrs: nounwind uwtable
define hidden i32 @_PyCompile_RevertInlinedComprehensionScopes(ptr noundef %0, i64 %1, i64 %2, ptr noundef %3) #0 {
  %5 = alloca i32, align 4
  %6 = alloca %struct._Py_SourceLocation, align 4
  %7 = alloca ptr, align 8
  %8 = alloca ptr, align 8
  %9 = alloca ptr, align 8
  %10 = alloca ptr, align 8
  %11 = alloca i64, align 8
  %12 = alloca i32, align 4
  %13 = alloca ptr, align 8
  %14 = alloca ptr, align 8
  %15 = alloca ptr, align 8
  %16 = alloca ptr, align 8
  %17 = alloca ptr, align 8
  %18 = getelementptr inbounds nuw { i64, i64 }, ptr %6, i32 0, i32 0
  store i64 %1, ptr %18, align 4
  %19 = getelementptr inbounds nuw { i64, i64 }, ptr %6, i32 0, i32 1
  store i64 %2, ptr %19, align 4
  store ptr %0, ptr %7, align 8, !tbaa !4
  store ptr %3, ptr %8, align 8, !tbaa !42
  %20 = load ptr, ptr %7, align 8, !tbaa !4
  %21 = getelementptr inbounds nuw %struct._PyCompiler, ptr %20, i32 0, i32 7
  %22 = load ptr, ptr %21, align 8, !tbaa !48
  %23 = getelementptr inbounds nuw %struct.compiler_unit, ptr %22, i32 0, i32 7
  %24 = load i32, ptr %23, align 4, !tbaa !67
  %25 = add i32 %24, -1
  store i32 %25, ptr %23, align 4, !tbaa !67
  %26 = load ptr, ptr %8, align 8, !tbaa !42
  %27 = getelementptr inbounds nuw %struct._PyCompile_InlinedComprehensionState, ptr %26, i32 0, i32 1
  %28 = load ptr, ptr %27, align 8, !tbaa !106
  %29 = icmp ne ptr %28, null
  br i1 %29, label %30, label %68

30:                                               ; preds = %4
  call void @llvm.lifetime.start.p0(i64 8, ptr %9) #8
  call void @llvm.lifetime.start.p0(i64 8, ptr %10) #8
  call void @llvm.lifetime.start.p0(i64 8, ptr %11) #8
  store i64 0, ptr %11, align 8, !tbaa !24
  br label %31

31:                                               ; preds = %50, %30
  %32 = load ptr, ptr %8, align 8, !tbaa !42
  %33 = getelementptr inbounds nuw %struct._PyCompile_InlinedComprehensionState, ptr %32, i32 0, i32 1
  %34 = load ptr, ptr %33, align 8, !tbaa !106
  %35 = call i32 @PyDict_Next(ptr noundef %34, ptr noundef %11, ptr noundef %9, ptr noundef %10)
  %36 = icmp ne i32 %35, 0
  br i1 %36, label %37, label %51

37:                                               ; preds = %31
  %38 = load ptr, ptr %7, align 8, !tbaa !4
  %39 = getelementptr inbounds nuw %struct._PyCompiler, ptr %38, i32 0, i32 7
  %40 = load ptr, ptr %39, align 8, !tbaa !48
  %41 = getelementptr inbounds nuw %struct.compiler_unit, ptr %40, i32 0, i32 0
  %42 = load ptr, ptr %41, align 8, !tbaa !56
  %43 = getelementptr inbounds nuw %struct._symtable_entry, ptr %42, i32 0, i32 2
  %44 = load ptr, ptr %43, align 8, !tbaa !62
  %45 = load ptr, ptr %9, align 8, !tbaa !32
  %46 = load ptr, ptr %10, align 8, !tbaa !32
  %47 = call i32 @PyDict_SetItem(ptr noundef %44, ptr noundef %45, ptr noundef %46)
  %48 = icmp ne i32 %47, 0
  br i1 %48, label %49, label %50

49:                                               ; preds = %37
  store i32 -1, ptr %5, align 4
  store i32 1, ptr %12, align 4
  br label %65

50:                                               ; preds = %37
  br label %31, !llvm.loop !110

51:                                               ; preds = %31
  br label %52

52:                                               ; preds = %51
  call void @llvm.lifetime.start.p0(i64 8, ptr %13) #8
  %53 = load ptr, ptr %8, align 8, !tbaa !42
  %54 = getelementptr inbounds nuw %struct._PyCompile_InlinedComprehensionState, ptr %53, i32 0, i32 1
  store ptr %54, ptr %13, align 8, !tbaa !79
  call void @llvm.lifetime.start.p0(i64 8, ptr %14) #8
  %55 = load ptr, ptr %13, align 8, !tbaa !79
  %56 = load ptr, ptr %55, align 8, !tbaa !32
  store ptr %56, ptr %14, align 8, !tbaa !32
  %57 = load ptr, ptr %14, align 8, !tbaa !32
  %58 = icmp ne ptr %57, null
  br i1 %58, label %59, label %62

59:                                               ; preds = %52
  %60 = load ptr, ptr %13, align 8, !tbaa !79
  store ptr null, ptr %60, align 8, !tbaa !32
  %61 = load ptr, ptr %14, align 8, !tbaa !32
  call void @Py_DECREF(ptr noundef %61)
  br label %62

62:                                               ; preds = %59, %52
  call void @llvm.lifetime.end.p0(i64 8, ptr %14) #8
  call void @llvm.lifetime.end.p0(i64 8, ptr %13) #8
  br label %63

63:                                               ; preds = %62
  br label %64

64:                                               ; preds = %63
  store i32 0, ptr %12, align 4
  br label %65

65:                                               ; preds = %64, %49
  call void @llvm.lifetime.end.p0(i64 8, ptr %11) #8
  call void @llvm.lifetime.end.p0(i64 8, ptr %10) #8
  call void @llvm.lifetime.end.p0(i64 8, ptr %9) #8
  %66 = load i32, ptr %12, align 4
  switch i32 %66, label %121 [
    i32 0, label %67
    i32 1, label %119
  ]

67:                                               ; preds = %65
  br label %68

68:                                               ; preds = %67, %4
  %69 = load ptr, ptr %8, align 8, !tbaa !42
  %70 = getelementptr inbounds nuw %struct._PyCompile_InlinedComprehensionState, ptr %69, i32 0, i32 2
  %71 = load ptr, ptr %70, align 8, !tbaa !108
  %72 = icmp ne ptr %71, null
  br i1 %72, label %73, label %118

73:                                               ; preds = %68
  br label %74

74:                                               ; preds = %104, %73
  %75 = load ptr, ptr %8, align 8, !tbaa !42
  %76 = getelementptr inbounds nuw %struct._PyCompile_InlinedComprehensionState, ptr %75, i32 0, i32 2
  %77 = load ptr, ptr %76, align 8, !tbaa !108
  %78 = call i64 @PySet_Size(ptr noundef %77)
  %79 = icmp sgt i64 %78, 0
  br i1 %79, label %80, label %105

80:                                               ; preds = %74
  call void @llvm.lifetime.start.p0(i64 8, ptr %15) #8
  %81 = load ptr, ptr %8, align 8, !tbaa !42
  %82 = getelementptr inbounds nuw %struct._PyCompile_InlinedComprehensionState, ptr %81, i32 0, i32 2
  %83 = load ptr, ptr %82, align 8, !tbaa !108
  %84 = call ptr @PySet_Pop(ptr noundef %83)
  store ptr %84, ptr %15, align 8, !tbaa !32
  %85 = load ptr, ptr %15, align 8, !tbaa !32
  %86 = icmp eq ptr %85, null
  br i1 %86, label %87, label %88

87:                                               ; preds = %80
  store i32 -1, ptr %5, align 4
  store i32 1, ptr %12, align 4
  br label %102

88:                                               ; preds = %80
  %89 = load ptr, ptr %7, align 8, !tbaa !4
  %90 = getelementptr inbounds nuw %struct._PyCompiler, ptr %89, i32 0, i32 7
  %91 = load ptr, ptr %90, align 8, !tbaa !48
  %92 = getelementptr inbounds nuw %struct.compiler_unit, ptr %91, i32 0, i32 9
  %93 = getelementptr inbounds nuw %struct._PyCompile_CodeUnitMetadata, ptr %92, i32 0, i32 7
  %94 = load ptr, ptr %93, align 8, !tbaa !65
  %95 = load ptr, ptr %15, align 8, !tbaa !32
  %96 = call i32 @PyDict_SetItem(ptr noundef %94, ptr noundef %95, ptr noundef @_Py_FalseStruct)
  %97 = icmp ne i32 %96, 0
  br i1 %97, label %98, label %100

98:                                               ; preds = %88
  %99 = load ptr, ptr %15, align 8, !tbaa !32
  call void @Py_DECREF(ptr noundef %99)
  store i32 -1, ptr %5, align 4
  store i32 1, ptr %12, align 4
  br label %102

100:                                              ; preds = %88
  %101 = load ptr, ptr %15, align 8, !tbaa !32
  call void @Py_DECREF(ptr noundef %101)
  store i32 0, ptr %12, align 4
  br label %102

102:                                              ; preds = %100, %98, %87
  call void @llvm.lifetime.end.p0(i64 8, ptr %15) #8
  %103 = load i32, ptr %12, align 4
  switch i32 %103, label %121 [
    i32 0, label %104
    i32 1, label %119
  ]

104:                                              ; preds = %102
  br label %74, !llvm.loop !111

105:                                              ; preds = %74
  br label %106

106:                                              ; preds = %105
  call void @llvm.lifetime.start.p0(i64 8, ptr %16) #8
  %107 = load ptr, ptr %8, align 8, !tbaa !42
  %108 = getelementptr inbounds nuw %struct._PyCompile_InlinedComprehensionState, ptr %107, i32 0, i32 2
  store ptr %108, ptr %16, align 8, !tbaa !79
  call void @llvm.lifetime.start.p0(i64 8, ptr %17) #8
  %109 = load ptr, ptr %16, align 8, !tbaa !79
  %110 = load ptr, ptr %109, align 8, !tbaa !32
  store ptr %110, ptr %17, align 8, !tbaa !32
  %111 = load ptr, ptr %17, align 8, !tbaa !32
  %112 = icmp ne ptr %111, null
  br i1 %112, label %113, label %116

113:                                              ; preds = %106
  %114 = load ptr, ptr %16, align 8, !tbaa !79
  store ptr null, ptr %114, align 8, !tbaa !32
  %115 = load ptr, ptr %17, align 8, !tbaa !32
  call void @Py_DECREF(ptr noundef %115)
  br label %116

116:                                              ; preds = %113, %106
  call void @llvm.lifetime.end.p0(i64 8, ptr %17) #8
  call void @llvm.lifetime.end.p0(i64 8, ptr %16) #8
  br label %117

117:                                              ; preds = %116
  br label %118

118:                                              ; preds = %117, %68
  store i32 0, ptr %5, align 4
  br label %119

119:                                              ; preds = %118, %102, %65
  %120 = load i32, ptr %5, align 4
  ret i32 %120

121:                                              ; preds = %102, %65
  unreachable
}