; Function Attrs: nounwind uwtable
define hidden range(i32 -1, 1) i32 @_PyCompile_RevertInlinedComprehensionScopes(ptr noundef readonly captures(none) %0, i64 %1, i64 %2, ptr noundef captures(none) %3) local_unnamed_addr #0 {
  %5 = alloca ptr, align 8
  %6 = alloca ptr, align 8
  %7 = alloca i64, align 8
  %8 = getelementptr inbounds nuw i8, ptr %0, i64 64
  %9 = load ptr, ptr %8, align 8, !tbaa !42
  %10 = getelementptr inbounds nuw i8, ptr %9, i64 52
  %11 = load i32, ptr %10, align 4, !tbaa !60
  %12 = add i32 %11, -1
  store i32 %12, ptr %10, align 4, !tbaa !60
  %13 = getelementptr inbounds nuw i8, ptr %3, i64 8
  %14 = load ptr, ptr %13, align 8, !tbaa !82
  %.not = icmp eq ptr %14, null
  br i1 %.not, label %35, label %15

15:                                               ; preds = %4
  call void @llvm.lifetime.start.p0(i64 8, ptr nonnull %5) #11
  call void @llvm.lifetime.start.p0(i64 8, ptr nonnull %6) #11
  call void @llvm.lifetime.start.p0(i64 8, ptr nonnull %7) #11
  store i64 0, ptr %7, align 8, !tbaa !45
  br label %16

16:                                               ; preds = %19, %15
  %17 = load ptr, ptr %13, align 8, !tbaa !82
  %18 = call i32 @PyDict_Next(ptr noundef %17, ptr noundef nonnull %7, ptr noundef nonnull %5, ptr noundef nonnull %6) #11
  %.not28.not = icmp eq i32 %18, 0
  br i1 %.not28.not, label %27, label %19

19:                                               ; preds = %16
  %20 = load ptr, ptr %8, align 8, !tbaa !42
  %21 = load ptr, ptr %20, align 8, !tbaa !48
  %22 = getelementptr inbounds nuw i8, ptr %21, i64 24
  %23 = load ptr, ptr %22, align 8, !tbaa !55
  %24 = load ptr, ptr %5, align 8, !tbaa !28
  %25 = load ptr, ptr %6, align 8, !tbaa !28
  %26 = call i32 @PyDict_SetItem(ptr noundef %23, ptr noundef %24, ptr noundef %25) #11
  %.not30 = icmp eq i32 %26, 0
  br i1 %.not30, label %16, label %Py_DECREF.exit39, !llvm.loop !86

27:                                               ; preds = %16
  %28 = load ptr, ptr %13, align 8, !tbaa !28
  %.not29 = icmp eq ptr %28, null
  br i1 %.not29, label %Py_DECREF.exit39.thread, label %29

29:                                               ; preds = %27
  store ptr null, ptr %13, align 8, !tbaa !28
  %30 = load i32, ptr %28, align 8, !tbaa !4
  %.not.i38 = icmp sgt i32 %30, -1
  br i1 %.not.i38, label %31, label %Py_DECREF.exit39.thread

31:                                               ; preds = %29
  %32 = add nsw i32 %30, -1
  store i32 %32, ptr %28, align 8, !tbaa !4
  %33 = icmp eq i32 %32, 0
  br i1 %33, label %34, label %Py_DECREF.exit39.thread

34:                                               ; preds = %31
  call void @_Py_Dealloc(ptr noundef nonnull %28) #11
  br label %Py_DECREF.exit39.thread

Py_DECREF.exit39.thread:                          ; preds = %34, %31, %29, %27
  call void @llvm.lifetime.end.p0(i64 8, ptr nonnull %7) #11
  call void @llvm.lifetime.end.p0(i64 8, ptr nonnull %6) #11
  call void @llvm.lifetime.end.p0(i64 8, ptr nonnull %5) #11
  br label %35

Py_DECREF.exit39:                                 ; preds = %19
  call void @llvm.lifetime.end.p0(i64 8, ptr nonnull %7) #11
  call void @llvm.lifetime.end.p0(i64 8, ptr nonnull %6) #11
  call void @llvm.lifetime.end.p0(i64 8, ptr nonnull %5) #11
  br label %Py_DECREF.exit

35:                                               ; preds = %Py_DECREF.exit39.thread, %4
  %36 = getelementptr inbounds nuw i8, ptr %3, i64 16
  %37 = load ptr, ptr %36, align 8, !tbaa !84
  %.not31 = icmp eq ptr %37, null
  br i1 %.not31, label %Py_DECREF.exit, label %.preheader

.preheader:                                       ; preds = %35, %Py_DECREF.exit37
  %38 = load ptr, ptr %36, align 8, !tbaa !84
  %39 = call i64 @PySet_Size(ptr noundef %38) #11
  %40 = icmp sgt i64 %39, 0
  %41 = load ptr, ptr %36, align 8, !tbaa !28
  br i1 %40, label %42, label %55

42:                                               ; preds = %.preheader
  %43 = call ptr @PySet_Pop(ptr noundef %41) #11
  %44 = icmp eq ptr %43, null
  br i1 %44, label %Py_DECREF.exit, label %45

45:                                               ; preds = %42
  %46 = load ptr, ptr %8, align 8, !tbaa !42
  %47 = getelementptr inbounds nuw i8, ptr %46, i64 952
  %48 = load ptr, ptr %47, align 8, !tbaa !58
  %49 = call i32 @PyDict_SetItem(ptr noundef %48, ptr noundef nonnull %43, ptr noundef nonnull @_Py_FalseStruct) #11
  %.not33 = icmp eq i32 %49, 0
  %50 = load i32, ptr %43, align 8, !tbaa !4
  %.not.i36 = icmp sgt i32 %50, -1
  br i1 %.not.i36, label %51, label %Py_DECREF.exit37

51:                                               ; preds = %45
  %52 = add nsw i32 %50, -1
  store i32 %52, ptr %43, align 8, !tbaa !4
  %53 = icmp eq i32 %52, 0
  br i1 %53, label %54, label %Py_DECREF.exit37

54:                                               ; preds = %51
  call void @_Py_Dealloc(ptr noundef nonnull %43) #11
  br label %Py_DECREF.exit37

Py_DECREF.exit37:                                 ; preds = %45, %51, %54
  br i1 %.not33, label %.preheader, label %Py_DECREF.exit

55:                                               ; preds = %.preheader
  %.not32 = icmp eq ptr %41, null
  br i1 %.not32, label %Py_DECREF.exit, label %56

56:                                               ; preds = %55
  store ptr null, ptr %36, align 8, !tbaa !28
  %57 = load i32, ptr %41, align 8, !tbaa !4
  %.not.i = icmp sgt i32 %57, -1
  br i1 %.not.i, label %58, label %Py_DECREF.exit

58:                                               ; preds = %56
  %59 = add nsw i32 %57, -1
  store i32 %59, ptr %41, align 8, !tbaa !4
  %60 = icmp eq i32 %59, 0
  br i1 %60, label %61, label %Py_DECREF.exit

61:                                               ; preds = %58
  call void @_Py_Dealloc(ptr noundef nonnull %41) #11
  br label %Py_DECREF.exit

Py_DECREF.exit:                                   ; preds = %Py_DECREF.exit37, %42, %61, %58, %56, %Py_DECREF.exit39, %35, %55
  %.2 = phi i32 [ -1, %Py_DECREF.exit39 ], [ 0, %55 ], [ 0, %35 ], [ 0, %56 ], [ 0, %58 ], [ 0, %61 ], [ -1, %42 ], [ -1, %Py_DECREF.exit37 ]
  ret i32 %.2
}